; Function Attrs: mustprogress uwtable
define noundef ptr @_ZN7rocksdb10LDBCommand19InitFromCmdLineArgsEiPKPKcRKNS_7OptionsERKNS_10LDBOptionsEPKSt6vectorINS_22ColumnFamilyDescriptorESaISC_EE(i32 noundef %0, ptr noundef %1, ptr noundef nonnull align 8 dereferenceable(1544) %2, ptr noundef nonnull align 8 dereferenceable(48) %3, ptr noundef %4) local_unnamed_addr #5 align 2 personality ptr @__gxx_personality_v0 {
  %6 = alloca %"class.std::vector.3", align 8
  %7 = alloca %"class.std::function", align 8
  call void @llvm.lifetime.start.p0(i64 24, ptr nonnull %6) #35
  call void @llvm.memset.p0.i64(ptr noundef nonnull align 8 dereferenceable(24) %6, i8 0, i64 24, i1 false)
  %8 = icmp sgt i32 %0, 1
  br i1 %8, label %.lr.ph.preheader, label %._crit_edge

.lr.ph.preheader:                                 ; preds = %5
  %wide.trip.count = zext nneg i32 %0 to i64
  br label %.lr.ph

._crit_edge:                                      ; preds = %15, %5
  call void @llvm.lifetime.start.p0(i64 32, ptr nonnull %7) #35
  %9 = getelementptr inbounds nuw i8, ptr %7, i64 16
  %10 = getelementptr inbounds nuw i8, ptr %7, i64 24
  %11 = getelementptr inbounds nuw i8, ptr %7, i64 8
  store i64 0, ptr %11, align 8
  store ptr @_ZN7rocksdb10LDBCommand13SelectCommandERKNS0_12ParsedParamsE, ptr %7, align 8, !tbaa !20
  store ptr @_ZNSt17_Function_handlerIFPN7rocksdb10LDBCommandERKNS1_12ParsedParamsEEPS6_E9_M_invokeERKSt9_Any_dataS5_, ptr %10, align 8, !tbaa !21
  store ptr @_ZNSt17_Function_handlerIFPN7rocksdb10LDBCommandERKNS1_12ParsedParamsEEPS6_E10_M_managerERSt9_Any_dataRKS9_St18_Manager_operation, ptr %9, align 8, !tbaa !24
  %12 = invoke noundef ptr @_ZN7rocksdb10LDBCommand19InitFromCmdLineArgsERKSt6vectorINSt7__cxx1112basic_stringIcSt11char_traitsIcESaIcEEESaIS7_EERKNS_7OptionsERKNS_10LDBOptionsEPKS1_INS_22ColumnFamilyDescriptorESaISI_EERKSt8functionIFPS0_RKNS0_12ParsedParamsEEE(ptr noundef nonnull align 8 dereferenceable(24) %6, ptr noundef nonnull align 8 dereferenceable(1544) %2, ptr noundef nonnull align 8 dereferenceable(48) %3, ptr noundef %4, ptr noundef nonnull align 8 dereferenceable(32) %7)
          to label %18 unwind label %44

.lr.ph:                                           ; preds = %.lr.ph.preheader, %15
  %indvars.iv = phi i64 [ 1, %.lr.ph.preheader ], [ %indvars.iv.next, %15 ]
  %13 = getelementptr inbounds nuw ptr, ptr %1, i64 %indvars.iv
  %14 = invoke noundef nonnull align 8 dereferenceable(32) ptr @_ZNSt6vectorINSt7__cxx1112basic_stringIcSt11char_traitsIcESaIcEEESaIS5_EE12emplace_backIJRKPKcEEERS5_DpOT_(ptr noundef nonnull align 8 dereferenceable(24) %6, ptr noundef nonnull align 8 dereferenceable(8) %13)
          to label %15 unwind label %16

15:                                               ; preds = %.lr.ph
  %indvars.iv.next = add nuw nsw i64 %indvars.iv, 1
  %exitcond.not = icmp eq i64 %indvars.iv.next, %wide.trip.count
  br i1 %exitcond.not, label %._crit_edge, label %.lr.ph, !llvm.loop !25

16:                                               ; preds = %.lr.ph
  %17 = landingpad { ptr, i32 }
          cleanup
  br label %52

18:                                               ; preds = %._crit_edge
  %19 = load ptr, ptr %9, align 8, !tbaa !24
  %.not.i = icmp eq ptr %19, null
  br i1 %.not.i, label %_ZNSt14_Function_baseD2Ev.exit, label %20

20:                                               ; preds = %18
  %21 = invoke noundef zeroext i1 %19(ptr noundef nonnull align 8 dereferenceable(32) %7, ptr noundef nonnull align 8 dereferenceable(32) %7, i32 noundef 3)
          to label %_ZNSt14_Function_baseD2Ev.exit unwind label %22

22:                                               ; preds = %20
  %23 = landingpad { ptr, i32 }
          catch ptr null
  %24 = extractvalue { ptr, i32 } %23, 0
  call void @__clang_call_terminate(ptr %24) #36
  unreachable

_ZNSt14_Function_baseD2Ev.exit:                   ; preds = %18, %20
  call void @llvm.lifetime.end.p0(i64 32, ptr nonnull %7) #35
  %25 = load ptr, ptr %6, align 8, !tbaa !27
  %26 = getelementptr inbounds nuw i8, ptr %6, i64 8
  %27 = load ptr, ptr %26, align 8, !tbaa !30
  %.not4.i.i.i.i = icmp eq ptr %25, %27
  br i1 %.not4.i.i.i.i, label %_ZSt8_DestroyIPNSt7__cxx1112basic_stringIcSt11char_traitsIcESaIcEEES5_EvT_S7_RSaIT0_E.exit.i, label %.lr.ph.i.i.i.i

.lr.ph.i.i.i.i:                                   ; preds = %_ZNSt14_Function_baseD2Ev.exit, %_ZSt8_DestroyINSt7__cxx1112basic_stringIcSt11char_traitsIcESaIcEEEEvPT_.exit.i.i.i.i
  %.05.i.i.i.i = phi ptr [ %36, %_ZSt8_DestroyINSt7__cxx1112basic_stringIcSt11char_traitsIcESaIcEEEEvPT_.exit.i.i.i.i ], [ %25, %_ZNSt14_Function_baseD2Ev.exit ]
  %28 = load ptr, ptr %.05.i.i.i.i, align 8, !tbaa !16
  %29 = getelementptr inbounds nuw i8, ptr %.05.i.i.i.i, i64 16
  %30 = icmp eq ptr %28, %29
  br i1 %30, label %_ZNKSt7__cxx1112basic_stringIcSt11char_traitsIcESaIcEE11_M_is_localEv.exit.thread.i.i.i.i.i.i.i, label %_ZNKSt7__cxx1112basic_stringIcSt11char_traitsIcESaIcEE11_M_is_localEv.exit.i.i.i.i.i.i.i

_ZNKSt7__cxx1112basic_stringIcSt11char_traitsIcESaIcEE11_M_is_localEv.exit.thread.i.i.i.i.i.i.i: ; preds = %.lr.ph.i.i.i.i
  %31 = getelementptr inbounds nuw i8, ptr %.05.i.i.i.i, i64 8
  %32 = load i64, ptr %31, align 8, !tbaa !19
  %33 = icmp ult i64 %32, 16
  call void @llvm.assume(i1 %33)
  br label %_ZSt8_DestroyINSt7__cxx1112basic_stringIcSt11char_traitsIcESaIcEEEEvPT_.exit.i.i.i.i

_ZNKSt7__cxx1112basic_stringIcSt11char_traitsIcESaIcEE11_M_is_localEv.exit.i.i.i.i.i.i.i: ; preds = %.lr.ph.i.i.i.i
  %34 = load i64, ptr %29, align 8, !tbaa !18
  %35 = add i64 %34, 1
  call void @_ZdlPvm(ptr noundef %28, i64 noundef %35) #33
  br label %_ZSt8_DestroyINSt7__cxx1112basic_stringIcSt11char_traitsIcESaIcEEEEvPT_.exit.i.i.i.i

_ZSt8_DestroyINSt7__cxx1112basic_stringIcSt11char_traitsIcESaIcEEEEvPT_.exit.i.i.i.i: ; preds = %_ZNKSt7__cxx1112basic_stringIcSt11char_traitsIcESaIcEE11_M_is_localEv.exit.i.i.i.i.i.i.i, %_ZNKSt7__cxx1112basic_stringIcSt11char_traitsIcESaIcEE11_M_is_localEv.exit.thread.i.i.i.i.i.i.i
  %36 = getelementptr inbounds nuw i8, ptr %.05.i.i.i.i, i64 32
  %.not.i.i.i.i = icmp eq ptr %36, %27
  br i1 %.not.i.i.i.i, label %_ZSt8_DestroyIPNSt7__cxx1112basic_stringIcSt11char_traitsIcESaIcEEES5_EvT_S7_RSaIT0_E.exitthread-pre-split.i, label %.lr.ph.i.i.i.i, !llvm.loop !31

_ZSt8_DestroyIPNSt7__cxx1112basic_stringIcSt11char_traitsIcESaIcEEES5_EvT_S7_RSaIT0_E.exitthread-pre-split.i: ; preds = %_ZSt8_DestroyINSt7__cxx1112basic_stringIcSt11char_traitsIcESaIcEEEEvPT_.exit.i.i.i.i
  %.pr.i = load ptr, ptr %6, align 8, !tbaa !27
  br label %_ZSt8_DestroyIPNSt7__cxx1112basic_stringIcSt11char_traitsIcESaIcEEES5_EvT_S7_RSaIT0_E.exit.i

_ZSt8_DestroyIPNSt7__cxx1112basic_stringIcSt11char_traitsIcESaIcEEES5_EvT_S7_RSaIT0_E.exit.i: ; preds = %_ZSt8_DestroyIPNSt7__cxx1112basic_stringIcSt11char_traitsIcESaIcEEES5_EvT_S7_RSaIT0_E.exitthread-pre-split.i, %_ZNSt14_Function_baseD2Ev.exit
  %37 = phi ptr [ %.pr.i, %_ZSt8_DestroyIPNSt7__cxx1112basic_stringIcSt11char_traitsIcESaIcEEES5_EvT_S7_RSaIT0_E.exitthread-pre-split.i ], [ %25, %_ZNSt14_Function_baseD2Ev.exit ]
  %.not.i.i.i = icmp eq ptr %37, null
  br i1 %.not.i.i.i, label %_ZNSt6vectorINSt7__cxx1112basic_stringIcSt11char_traitsIcESaIcEEESaIS5_EED2Ev.exit, label %38

38:                                               ; preds = %_ZSt8_DestroyIPNSt7__cxx1112basic_stringIcSt11char_traitsIcESaIcEEES5_EvT_S7_RSaIT0_E.exit.i
  %39 = getelementptr inbounds nuw i8, ptr %6, i64 16
  %40 = load ptr, ptr %39, align 8, !tbaa !32
  %41 = ptrtoint ptr %40 to i64
  %42 = ptrtoint ptr %37 to i64
  %43 = sub i64 %41, %42
  call void @_ZdlPvm(ptr noundef nonnull %37, i64 noundef %43) #33
  br label %_ZNSt6vectorINSt7__cxx1112basic_stringIcSt11char_traitsIcESaIcEEESaIS5_EED2Ev.exit

_ZNSt6vectorINSt7__cxx1112basic_stringIcSt11char_traitsIcESaIcEEESaIS5_EED2Ev.exit: ; preds = %_ZSt8_DestroyIPNSt7__cxx1112basic_stringIcSt11char_traitsIcESaIcEEES5_EvT_S7_RSaIT0_E.exit.i, %38
  call void @llvm.lifetime.end.p0(i64 24, ptr nonnull %6) #35
  ret ptr %12

44:                                               ; preds = %._crit_edge
  %45 = landingpad { ptr, i32 }
          cleanup
  %46 = load ptr, ptr %9, align 8, !tbaa !24
  %.not.i12 = icmp eq ptr %46, null
  br i1 %.not.i12, label %_ZNSt14_Function_baseD2Ev.exit13, label %47

47:                                               ; preds = %44
  %48 = invoke noundef zeroext i1 %46(ptr noundef nonnull align 8 dereferenceable(32) %7, ptr noundef nonnull align 8 dereferenceable(32) %7, i32 noundef 3)
          to label %_ZNSt14_Function_baseD2Ev.exit13 unwind label %49

49:                                               ; preds = %47
  %50 = landingpad { ptr, i32 }
          catch ptr null
  %51 = extractvalue { ptr, i32 } %50, 0
  call void @__clang_call_terminate(ptr %51) #36
  unreachable

_ZNSt14_Function_baseD2Ev.exit13:                 ; preds = %44, %47
  call void @llvm.lifetime.end.p0(i64 32, ptr nonnull %7) #35
  br label %52

52:                                               ; preds = %_ZNSt14_Function_baseD2Ev.exit13, %16
  %.pn = phi { ptr, i32 } [ %17, %16 ], [ %45, %_ZNSt14_Function_baseD2Ev.exit13 ]
  call void @_ZNSt6vectorINSt7__cxx1112basic_stringIcSt11char_traitsIcESaIcEEESaIS5_EED2Ev(ptr noundef nonnull align 8 dereferenceable(24) %6) #35
  call void @llvm.lifetime.end.p0(i64 24, ptr nonnull %6) #35
  resume { ptr, i32 } %.pn
}